Certificate:
    Data:
        Version: 3 (0x2)
        Serial Number: 1 (0x1)
        Signature Algorithm: md5WithRSAEncryption
        Issuer: C=FR, ST=Radius, L=Somewhere, O=Example Inc./emailAddress=admin@example.com, CN=Example Certificate Authority
        Validity
            Not Before: May 29 00:23:28 2008 GMT
            Not After : May 29 00:23:28 2009 GMT
        Subject: C=FR, ST=Radius, O=Example Inc., CN=Example Server Certificate/emailAddress=admin@example.com
        Subject Public Key Info:
            Public Key Algorithm: rsaEncryption
            RSA Public Key: (2048 bit)
                Modulus (2048 bit):
                    00:c6:ee:21:ad:e1:2c:0d:ca:bc:81:ca:ce:73:b2:
                    2d:bc:ab:9c:f5:d4:95:af:38:88:5f:36:51:10:2a:
                    57:db:56:32:f1:50:7b:a5:f6:48:6b:ea:fc:62:8f:
                    d3:f5:44:35:00:50:8c:e1:96:bd:03:c5:4d:d7:5f:
                    71:1d:22:d6:95:1d:df:72:1e:86:fa:0d:4b:47:df:
                    36:43:c3:ea:06:d7:b8:5a:bd:48:d2:52:87:d3:f2:
                    3c:1b:95:f6:56:ec:95:7f:f5:97:b8:75:95:d5:54:
                    6f:51:f0:82:1f:09:07:9e:4a:a2:06:06:2a:ad:21:
                    f4:5e:e4:9f:80:49:89:7b:70:0b:cf:e3:a5:77:2d:
                    cd:06:11:13:86:9d:0b:94:19:43:14:ed:67:cb:5f:
                    9e:a8:a5:03:24:c0:f9:07:4e:b2:9c:7e:f1:7e:d8:
                    98:38:90:76:0a:84:5e:cb:98:a2:2d:b8:d8:e4:3f:
                    60:82:af:bc:ef:2f:36:47:8a:9c:c3:ee:96:9a:ab:
                    41:5f:c1:d0:28:fe:f1:36:48:8b:ae:fc:0e:af:fa:
                    0b:14:87:6b:32:46:22:8e:d6:5b:b1:3a:c7:c8:3e:
                    0f:8b:1f:81:69:f9:d8:75:4e:1a:88:b4:b4:8b:a6:
                    c3:a5:d9:e1:3d:85:d3:70:d7:67:b8:0f:9e:4e:9f:
                    d1:b3
                Exponent: 65537 (0x10001)
        X509v3 extensions:
            X509v3 Extended Key Usage: 
                TLS Web Server Authentication
    Signature Algorithm: md5WithRSAEncryption
        28:f3:1a:bf:0d:18:e9:f5:2a:89:7c:73:9d:52:6e:a8:02:96:
        f5:cc:5a:49:04:37:f3:1b:a3:f3:56:be:be:9f:dd:1a:62:a2:
        7f:66:fd:d2:15:29:57:32:f2:c2:85:a9:03:34:7f:fc:6c:10:
        c5:ed:0f:08:62:e0:47:ba:42:30:21:47:dc:ff:96:9f:a2:d6:
        14:ed:1d:b3:93:d9:05:c6:0d:fe:eb:73:05:a4:f4:76:9c:dc:
        ae:16:6d:97:54:c1:0a:ee:be:0d:31:02:de:73:f9:f8:c0:c9:
        96:17:15:ed:80:e9:4c:63:5f:54:d5:af:ee:9a:cb:c7:1c:37:
        c4:57:b3:58:bd:2a:54:02:26:a0:7f:40:d8:62:de:f1:51:30:
        7f:52:37:6e:4d:a6:71:27:6c:62:8d:57:d1:41:02:3b:7f:c9:
        98:5a:67:a8:a1:b6:1d:50:b2:5b:33:c3:d8:c8:0e:f8:e1:7b:
        9c:72:e5:7b:b0:4c:2d:8c:56:5e:c3:0a:94:e0:c6:bf:70:8a:
        27:b0:05:03:46:4c:8f:82:44:52:d3:72:7a:e3:ee:67:1a:2e:
        31:31:fe:97:0a:4a:74:65:fc:13:c4:d5:ad:36:73:56:7c:b6:
        de:2e:b8:b9:f8:3e:2e:4b:36:cb:33:69:fe:61:39:c9:04:80:
        92:1b:b1:d7
-----BEGIN CERTIFICATE-----
MIIDojCCAoqgAwIBAgIBATANBgkqhkiG9w0BAQQFADCBkzELMAkGA1UEBhMCRlIx
DzANBgNVBAgTBlJhZGl1czESMBAGA1UEBxMJU29tZXdoZXJlMRUwEwYDVQQKEwxF
eGFtcGxlIEluYy4xIDAeBgkqhkiG9w0BCQEWEWFkbWluQGV4YW1wbGUuY29tMSYw
JAYDVQQDEx1FeGFtcGxlIENlcnRpZmljYXRlIEF1dGhvcml0eTAeFw0wODA1Mjkw
MDIzMjhaFw0wOTA1MjkwMDIzMjhaMHwxCzAJBgNVBAYTAkZSMQ8wDQYDVQQIEwZS
YWRpdXMxFTATBgNVBAoTDEV4YW1wbGUgSW5jLjEjMCEGA1UEAxMaRXhhbXBsZSBT
ZXJ2ZXIgQ2VydGlmaWNhdGUxIDAeBgkqhkiG9w0BCQEWEWFkbWluQGV4YW1wbGUu
Y29tMIIBIjANBgkqhkiG9w0BAQEFAAOCAQ8AMIIBCgKCAQEAxu4hreEsDcq8gcrO
c7ItvKuc9dSVrziIXzZRECpX21Yy8VB7pfZIa+r8Yo/T9UQ1AFCM4Za9A8VN119x
HSLWlR3fch6G+g1LR982Q8PqBte4Wr1I0lKH0/I8G5X2VuyVf/WXuHWV1VRvUfCC
HwkHnkqiBgYqrSH0XuSfgEmJe3ALz+Oldy3NBhEThp0LlBlDFO1ny1+eqKUDJMD5
B06ynH7xftiYOJB2CoRey5iiLbjY5D9ggq+87y82R4qcw+6WmqtBX8HQKP7xNkiL
rvwOr/oLFIdrMkYijtZbsTrHyD4Pix+BafnYdU4aiLS0i6bDpdnhPYXTcNdnuA+e
Tp/RswIDAQABoxcwFTATBgNVHSUEDDAKBggrBgEFBQcDATANBgkqhkiG9w0BAQQF
AAOCAQEAKPMavw0Y6fUqiXxznVJuqAKW9cxaSQQ38xuj81a+vp/dGmKif2b90hUp
VzLywoWpAzR//GwQxe0PCGLgR7pCMCFH3P+Wn6LWFO0ds5PZBcYN/utzBaT0dpzc
rhZtl1TBCu6+DTEC3nP5+MDJlhcV7YDpTGNfVNWv7prLxxw3xFezWL0qVAImoH9A
2GLe8VEwf1I3bk2mcSdsYo1X0UECO3/JmFpnqKG2HVCyWzPD2MgO+OF7nHLle7BM
LYxWXsMKlODGv3CKJ7AFA0ZMj4JEUtNyeuPuZxouMTH+lwpKdGX8E8TVrTZzVny2
3i64ufg+Lks2yzNp/mE5yQSAkhux1w==
-----END CERTIFICATE-----
